(dp0
S'IW_USE_CALLSTACK'
p1
NsS'IW_MKF_S3EFACEBOOK'
p2
NsS'I3D_PLATFORM_S3E'
p3
NsS'IW_TRACE_CHANNEL_FLURRY'
p4
S'1'
p5
sS'IW_MKF_IWBILLING'
p6
NsS'IW_TRACE_CHANNEL_WEBVIEW'
p7
g5
sS'IW_MKF_S3EWEBVIEW'
p8
NsS'IW_MKF_S3EIOSAPPSTOREBILLING'
p9
NsS'IW_TRACE_CHANNEL_ANDROIDGOOGLEPLAYBILLING_VERBOSE'
p10
S'2'
p11
sS'IW_TRACE_CHANNEL_INAPPBILLING_VERBOSE'
p12
g11
sS'IW_MKF_QUICK_PREBUILT'
p13
NsS'IW_MKF_LIBJPEG'
p14
NsS'I3D_OS_S3E'
p15
NsS'IW_ASSERTION_CHANNEL_FLURRY'
p16
g5
sS'IW_MKF_QUICK_PREBUILT_OPTIONS'
p17
NsS'IW_APP_VERSION'
p18
S'"1.0"'
p19
sS'IW_TRACE_CHANNEL_SAMSUNGINAPPPURCHASING'
p20
g5
sS'IW_MKF_S3EAMAZONINAPPPURCHASING'
p21
NsS'IW_MKF_IWUTIL'
p22
NsS'IW_TRACE_CHANNEL_ANDROIDMARKETBILLING_VERBOSE'
p23
g11
sS'IW_SDK'
p24
NsS'IW_MKF_S3ESAMSUNGINAPPPURCHASING'
p25
NsS'IW_MKF_FORTUMO'
p26
NsS'IW_APP_NAME'
p27
S'"noname"'
p28
sS'IW_ASSERTION_CHANNEL_ANDROIDGOOGLEPLAYBILLING'
p29
g5
sS'IW_ASSERTION_CHANNEL_SAMSUNGINAPPPURCHASING'
p30
g5
sS'IW_TRACE_CHANNEL_FACEBOOK'
p31
g5
sS'IW_TRACE_CHANNEL_SAMSUNGINAPPPURCHASING_VERBOSE'
p32
g11
sS'IW_TRACE_CHANNEL_WEBVIEW_VERBOSE'
p33
g11
sS'IW_TRACE_CHANNEL_ANDROIDGOOGLEPLAYBILLING'
p34
g5
sS'IW_MKF_S3EFLURRY'
p35
NsS'IW_MKF_ZLIB'
p36
NsS'IW_TRACE_CHANNEL_IOSAPPSTOREBILLING_VERBOSE'
p37
g11
sS'IW_ASSERTION_CHANNEL_BBAPPWORLDBILLING'
p38
g5
sS'IW_TRACE_CHANNEL_WINDOWSSTOREBILLING'
p39
g5
sS'IW_MKF_S3EWINDOWSSTOREBILLING'
p40
NsS'IW_TRACE_CHANNEL_AMAZONINAPPPURCHASING_VERBOSE'
p41
g11
sS'IW_ASSERTION_CHANNEL_WEBVIEW'
p42
g5
sS'IW_USE_ASSERTIONS'
p43
NsS'IW_MKF_S3EBBAPPWORLDBILLING'
p44
NsS'I3D_ARCH_X86'
p45
NsS'IW_MKF_LIBPNG'
p46
NsS'IW_TRACE_CHANNEL_FLURRY_VERBOSE'
p47
g11
sS'IW_ASSERTION_CHANNEL_FORTUMO'
p48
g5
sS'IW_ASSERTION_CHANNEL_FACEBOOK'
p49
g5
sS'IW_TRACE_CHANNEL_FACEBOOK_VERBOSE'
p50
g11
sS'IW_DEBUG'
p51
NsS'IW_USE_TRACING'
p52
NsS'IW_PLATFORM_S3E'
p53
NsS'IW_ASSERTION_CHANNEL_AMAZONINAPPPURCHASING'
p54
g5
sS'IW_MKF_S3EANDROIDGOOGLEPLAYBILLING'
p55
NsS'IW_TRACE_CHANNEL_WINDOWSSTOREBILLING_VERBOSE'
p56
g11
sS'IW_TRACE_CHANNEL_ANDROIDMARKETBILLING'
p57
g5
sS'IW_ASSERTION_CHANNEL_ANDROIDMARKETBILLING'
p58
g5
sS'IW_TRACE_CHANNEL_FORTUMO_VERBOSE'
p59
g11
sS'S3E_INCLUDE_LEGACY'
p60
NsS'__S3E__'
p61
NsS'IW_TRACE_CHANNEL_INAPPBILLING'
p62
g5
sS'IW_MKF_S3EANDROIDMARKETBILLING'
p63
NsS'IW_TRACE_CHANNEL_FORTUMO'
p64
g5
sS'IW_ASSERTION_CHANNEL_WINDOWSSTOREBILLING'
p65
g5
sS'IW_TRACE_CHANNEL_IOSAPPSTOREBILLING'
p66
g5
sS'IW_TRACE_CHANNEL_BBAPPWORLDBILLING_VERBOSE'
p67
g11
sS'IW_TRACE_CHANNEL_AMAZONINAPPPURCHASING'
p68
g5
sS'IW_ASSERTION_CHANNEL_IOSAPPSTOREBILLING'
p69
g5
sS'IW_TRACE_CHANNEL_BBAPPWORLDBILLING'
p70
g5
s.